target datalayout = "e-m:e-p270:32:32-p271:32:32-p272:64:64-i64:64-i128:128-f80:128-n8:16:32:64-S128"
target triple = "x86_64-pc-linux-gnu"

%struct.nameData = type { [64 x i8] }
%struct.RelationData = type { %struct.RelFileLocator, ptr, i32, i32, i8, i8, i8, i8, i8, i32, i32, i32, i32, ptr, ptr, i32, %struct.LockInfoData, ptr, ptr, ptr, ptr, ptr, i8, ptr, ptr, ptr, ptr, ptr, ptr, i32, ptr, i8, ptr, ptr, i32, i8, i32, ptr, i8, ptr, ptr, ptr, ptr, ptr, ptr, ptr, i32, ptr, ptr, ptr, ptr, ptr, ptr, ptr, ptr, ptr, ptr, ptr, ptr, ptr, ptr, ptr, ptr, ptr, ptr, ptr, i32, i8, ptr }
%struct.RelFileLocator = type { i32, i32, i32 }
%struct.LockInfoData = type { %struct.LockRelId }
%struct.LockRelId = type { i32, i32 }
%struct.FormData_pg_class = type { i32, %struct.nameData, i32, i32, i32, i32, i32, i32, i32, i32, float, i32, i32, i8, i8, i8, i8, i16, i16, i8, i8, i8, i8, i8, i8, i8, i8, i32, i32, i32 }
%struct.TableAmRoutine = type { i32, ptr, ptr, ptr, ptr, ptr, ptr, ptr, ptr, ptr, ptr, ptr, ptr, ptr, ptr, ptr, ptr, ptr, ptr, ptr, ptr, ptr, ptr, ptr, ptr, ptr, ptr, ptr, ptr, ptr, ptr, ptr, ptr, ptr, ptr, ptr, ptr, ptr, ptr, ptr, ptr, ptr, ptr, ptr, ptr, ptr }
%struct.ForEachState = type { ptr, i32 }
%struct.List = type { i32, i32, i32, ptr, [0 x %union.ListCell] }
%union.ListCell = type { ptr }

; Function Attrs: inlinehint nounwind uwtable
define internal void @table_relation_nontransactional_truncate(ptr noundef %0) #5 {
  %2 = alloca ptr, align 8
  store ptr %0, ptr %2, align 8
  %3 = load ptr, ptr %2, align 8
  %4 = getelementptr inbounds nuw %struct.RelationData, ptr %3, i32 0, i32 47
  %5 = load ptr, ptr %4, align 8
  %6 = getelementptr inbounds nuw %struct.TableAmRoutine, ptr %5, i32 0, i32 29
  %7 = load ptr, ptr %6, align 8
  %8 = load ptr, ptr %2, align 8
  call void %7(ptr noundef %8)
  ret void
}

; Function Attrs: nounwind uwtable
define dso_local void @heap_truncate_one_rel(ptr noundef %0) #0 {
  %2 = alloca ptr, align 8
  %3 = alloca i32, align 4
  %4 = alloca i32, align 4
  %5 = alloca ptr, align 8
  store ptr %0, ptr %2, align 8
  call void @llvm.lifetime.start.p0(i64 4, ptr %3) #10
  %6 = load ptr, ptr %2, align 8
  %7 = getelementptr inbounds nuw %struct.RelationData, ptr %6, i32 0, i32 13
  %8 = load ptr, ptr %7, align 8
  %9 = getelementptr inbounds nuw %struct.FormData_pg_class, ptr %8, i32 0, i32 16
  %10 = load i8, ptr %9, align 1
  %11 = sext i8 %10 to i32
  %12 = icmp eq i32 %11, 112
  br i1 %12, label %13, label %14

13:                                               ; preds = %1
  store i32 1, ptr %4, align 4
  br label %31

14:                                               ; preds = %1
  %15 = load ptr, ptr %2, align 8
  call void @table_relation_nontransactional_truncate(ptr noundef %15)
  %16 = load ptr, ptr %2, align 8
  call void @RelationTruncateIndexes(ptr noundef %16)
  %17 = load ptr, ptr %2, align 8
  %18 = getelementptr inbounds nuw %struct.RelationData, ptr %17, i32 0, i32 13
  %19 = load ptr, ptr %18, align 8
  %20 = getelementptr inbounds nuw %struct.FormData_pg_class, ptr %19, i32 0, i32 12
  %21 = load i32, ptr %20, align 4
  store i32 %21, ptr %3, align 4
  %22 = load i32, ptr %3, align 4
  %23 = icmp ne i32 %22, 0
  br i1 %23, label %24, label %30

24:                                               ; preds = %14
  call void @llvm.lifetime.start.p0(i64 8, ptr %5) #10
  %25 = load i32, ptr %3, align 4
  %26 = call ptr @table_open(i32 noundef %25, i32 noundef 8)
  store ptr %26, ptr %5, align 8
  %27 = load ptr, ptr %5, align 8
  call void @table_relation_nontransactional_truncate(ptr noundef %27)
  %28 = load ptr, ptr %5, align 8
  call void @RelationTruncateIndexes(ptr noundef %28)
  %29 = load ptr, ptr %5, align 8
  call void @table_close(ptr noundef %29, i32 noundef 0)
  call void @llvm.lifetime.end.p0(i64 8, ptr %5) #10
  br label %30

30:                                               ; preds = %24, %14
  store i32 0, ptr %4, align 4
  br label %31

31:                                               ; preds = %30, %13
  call void @llvm.lifetime.end.p0(i64 4, ptr %3) #10
  %32 = load i32, ptr %4, align 4
  switch i32 %32, label %34 [
    i32 0, label %33
    i32 1, label %33
  ]

33:                                               ; preds = %31, %31
  ret void

34:                                               ; preds = %31
  unreachable
}

; Function Attrs: nounwind uwtable
define dso_local void @heap_truncate(ptr noundef %0) #0 {
  %2 = alloca ptr, align 8
  %3 = alloca ptr, align 8
  %4 = alloca ptr, align 8
  %5 = alloca %struct.ForEachState, align 8
  %6 = alloca i32, align 4
  %7 = alloca ptr, align 8
  %8 = alloca %struct.ForEachState, align 8
  %9 = alloca ptr, align 8
  store ptr %0, ptr %2, align 8
  call void @llvm.lifetime.start.p0(i64 8, ptr %3) #10
  store ptr null, ptr %3, align 8
  call void @llvm.lifetime.start.p0(i64 8, ptr %4) #10
  call void @llvm.lifetime.start.p0(i64 16, ptr %5) #10
  %10 = getelementptr inbounds nuw %struct.ForEachState, ptr %5, i32 0, i32 0
  %11 = load ptr, ptr %2, align 8
  store ptr %11, ptr %10, align 8
  %12 = getelementptr inbounds nuw %struct.ForEachState, ptr %5, i32 0, i32 1
  store i32 0, ptr %12, align 8
  %13 = getelementptr i8, ptr %5, i64 12
  call void @llvm.memset.p0.i64(ptr align 4 %13, i8 0, i64 4, i1 false)
  br label %14

14:                                               ; preds = %48, %1
  %15 = getelementptr inbounds nuw %struct.ForEachState, ptr %5, i32 0, i32 0
  %16 = load ptr, ptr %15, align 8
  %17 = icmp ne ptr %16, null
  br i1 %17, label %18, label %35

18:                                               ; preds = %14
  %19 = getelementptr inbounds nuw %struct.ForEachState, ptr %5, i32 0, i32 1
  %20 = load i32, ptr %19, align 8
  %21 = getelementptr inbounds nuw %struct.ForEachState, ptr %5, i32 0, i32 0
  %22 = load ptr, ptr %21, align 8
  %23 = getelementptr inbounds nuw %struct.List, ptr %22, i32 0, i32 1
  %24 = load i32, ptr %23, align 4
  %25 = icmp slt i32 %20, %24
  br i1 %25, label %26, label %35

26:                                               ; preds = %18
  %27 = getelementptr inbounds nuw %struct.ForEachState, ptr %5, i32 0, i32 0
  %28 = load ptr, ptr %27, align 8
  %29 = getelementptr inbounds nuw %struct.List, ptr %28, i32 0, i32 3
  %30 = load ptr, ptr %29, align 8
  %31 = getelementptr inbounds nuw %struct.ForEachState, ptr %5, i32 0, i32 1
  %32 = load i32, ptr %31, align 8
  %33 = sext i32 %32 to i64
  %34 = getelementptr inbounds %union.ListCell, ptr %30, i64 %33
  store ptr %34, ptr %4, align 8
  br label %36

35:                                               ; preds = %18, %14
  store ptr null, ptr %4, align 8
  br label %36

36:                                               ; preds = %35, %26
  %37 = phi i32 [ 1, %26 ], [ 0, %35 ]
  %38 = icmp ne i32 %37, 0
  br i1 %38, label %40, label %39

39:                                               ; preds = %36
  call void @llvm.lifetime.end.p0(i64 16, ptr %5) #10
  br label %52

40:                                               ; preds = %36
  call void @llvm.lifetime.start.p0(i64 4, ptr %6) #10
  %41 = load ptr, ptr %4, align 8
  %42 = load i32, ptr %41, align 8
  store i32 %42, ptr %6, align 4
  call void @llvm.lifetime.start.p0(i64 8, ptr %7) #10
  %43 = load i32, ptr %6, align 4
  %44 = call ptr @table_open(i32 noundef %43, i32 noundef 8)
  store ptr %44, ptr %7, align 8
  %45 = load ptr, ptr %3, align 8
  %46 = load ptr, ptr %7, align 8
  %47 = call ptr @lappend(ptr noundef %45, ptr noundef %46)
  store ptr %47, ptr %3, align 8
  call void @llvm.lifetime.end.p0(i64 8, ptr %7) #10
  call void @llvm.lifetime.end.p0(i64 4, ptr %6) #10
  br label %48

48:                                               ; preds = %40
  %49 = getelementptr inbounds nuw %struct.ForEachState, ptr %5, i32 0, i32 1
  %50 = load i32, ptr %49, align 8
  %51 = add i32 %50, 1
  store i32 %51, ptr %49, align 8
  br label %14, !llvm.loop !42

52:                                               ; preds = %39
  %53 = load ptr, ptr %3, align 8
  call void @heap_truncate_check_FKs(ptr noundef %53, i1 noundef zeroext true)
  call void @llvm.lifetime.start.p0(i64 16, ptr %8) #10
  %54 = getelementptr inbounds nuw %struct.ForEachState, ptr %8, i32 0, i32 0
  %55 = load ptr, ptr %3, align 8
  store ptr %55, ptr %54, align 8
  %56 = getelementptr inbounds nuw %struct.ForEachState, ptr %8, i32 0, i32 1
  store i32 0, ptr %56, align 8
  %57 = getelementptr i8, ptr %8, i64 12
  call void @llvm.memset.p0.i64(ptr align 4 %57, i8 0, i64 4, i1 false)
  br label %58

58:                                               ; preds = %89, %52
  %59 = getelementptr inbounds nuw %struct.ForEachState, ptr %8, i32 0, i32 0
  %60 = load ptr, ptr %59, align 8
  %61 = icmp ne ptr %60, null
  br i1 %61, label %62, label %79

62:                                               ; preds = %58
  %63 = getelementptr inbounds nuw %struct.ForEachState, ptr %8, i32 0, i32 1
  %64 = load i32, ptr %63, align 8
  %65 = getelementptr inbounds nuw %struct.ForEachState, ptr %8, i32 0, i32 0
  %66 = load ptr, ptr %65, align 8
  %67 = getelementptr inbounds nuw %struct.List, ptr %66, i32 0, i32 1
  %68 = load i32, ptr %67, align 4
  %69 = icmp slt i32 %64, %68
  br i1 %69, label %70, label %79

70:                                               ; preds = %62
  %71 = getelementptr inbounds nuw %struct.ForEachState, ptr %8, i32 0, i32 0
  %72 = load ptr, ptr %71, align 8
  %73 = getelementptr inbounds nuw %struct.List, ptr %72, i32 0, i32 3
  %74 = load ptr, ptr %73, align 8
  %75 = getelementptr inbounds nuw %struct.ForEachState, ptr %8, i32 0, i32 1
  %76 = load i32, ptr %75, align 8
  %77 = sext i32 %76 to i64
  %78 = getelementptr inbounds %union.ListCell, ptr %74, i64 %77
  store ptr %78, ptr %4, align 8
  br label %80

79:                                               ; preds = %62, %58
  store ptr null, ptr %4, align 8
  br label %80

80:                                               ; preds = %79, %70
  %81 = phi i32 [ 1, %70 ], [ 0, %79 ]
  %82 = icmp ne i32 %81, 0
  br i1 %82, label %84, label %83

83:                                               ; preds = %80
  call void @llvm.lifetime.end.p0(i64 16, ptr %8) #10
  br label %93

84:                                               ; preds = %80
  call void @llvm.lifetime.start.p0(i64 8, ptr %9) #10
  %85 = load ptr, ptr %4, align 8
  %86 = load ptr, ptr %85, align 8
  store ptr %86, ptr %9, align 8
  %87 = load ptr, ptr %9, align 8
  call void @heap_truncate_one_rel(ptr noundef %87)
  %88 = load ptr, ptr %9, align 8
  call void @table_close(ptr noundef %88, i32 noundef 0)
  call void @llvm.lifetime.end.p0(i64 8, ptr %9) #10
  br label %89

89:                                               ; preds = %84
  %90 = getelementptr inbounds nuw %struct.ForEachState, ptr %8, i32 0, i32 1
  %91 = load i32, ptr %90, align 8
  %92 = add i32 %91, 1
  store i32 %92, ptr %90, align 8
  br label %58, !llvm.loop !43

93:                                               ; preds = %83
  call void @llvm.lifetime.end.p0(i64 8, ptr %4) #10
  call void @llvm.lifetime.end.p0(i64 8, ptr %3) #10
  ret void
}