; Function Attrs: nounwind uwtable
define dso_local void @heap_truncate(ptr noundef readonly captures(address_is_null) %0) local_unnamed_addr #0 {
  %2 = getelementptr inbounds nuw i8, ptr %0, i64 4
  %.not = icmp eq ptr %0, null
  br i1 %.not, label %._crit_edge.thread, label %.lr.ph

.lr.ph:                                           ; preds = %1
  %3 = getelementptr inbounds nuw i8, ptr %0, i64 16
  %4 = load i32, ptr %2, align 4
  %5 = icmp sgt i32 %4, 0
  br i1 %5, label %.lr.ph38, label %._crit_edge.thread

._crit_edge.thread:                               ; preds = %1, %.lr.ph
  tail call void @heap_truncate_check_FKs(ptr noundef null, i1 noundef zeroext true)
  br label %._crit_edge43

._crit_edge:                                      ; preds = %.lr.ph38
  tail call void @heap_truncate_check_FKs(ptr noundef %14, i1 noundef zeroext true)
  %6 = getelementptr inbounds nuw i8, ptr %14, i64 4
  %.not23 = icmp eq ptr %14, null
  br i1 %.not23, label %._crit_edge43, label %.lr.ph42

.lr.ph42:                                         ; preds = %._crit_edge
  %7 = getelementptr inbounds nuw i8, ptr %14, i64 16
  %8 = load i32, ptr %6, align 4
  %9 = icmp sgt i32 %8, 0
  br i1 %9, label %.lr.ph46, label %._crit_edge43

.lr.ph38:                                         ; preds = %.lr.ph, %.lr.ph38
  %indvars.iv = phi i64 [ %indvars.iv.next, %.lr.ph38 ], [ 0, %.lr.ph ]
  %.03236 = phi ptr [ %14, %.lr.ph38 ], [ null, %.lr.ph ]
  %10 = load ptr, ptr %3, align 8
  %11 = getelementptr inbounds nuw %union.ListCell, ptr %10, i64 %indvars.iv
  %12 = load i32, ptr %11, align 8
  %13 = tail call ptr @table_open(i32 noundef %12, i32 noundef 8) #11
  %14 = tail call ptr @lappend(ptr noundef %.03236, ptr noundef %13) #11
  %indvars.iv.next = add nuw nsw i64 %indvars.iv, 1
  %15 = load i32, ptr %2, align 4
  %16 = sext i32 %15 to i64
  %17 = icmp slt i64 %indvars.iv.next, %16
  br i1 %17, label %.lr.ph38, label %._crit_edge

._crit_edge43:                                    ; preds = %heap_truncate_one_rel.exit, %._crit_edge.thread, %.lr.ph42, %._crit_edge
  ret void

.lr.ph46:                                         ; preds = %.lr.ph42, %heap_truncate_one_rel.exit
  %indvars.iv48 = phi i64 [ %indvars.iv.next49, %heap_truncate_one_rel.exit ], [ 0, %.lr.ph42 ]
  %18 = load ptr, ptr %7, align 8
  %19 = getelementptr inbounds nuw %union.ListCell, ptr %18, i64 %indvars.iv48
  %20 = load ptr, ptr %19, align 8
  %21 = getelementptr inbounds nuw i8, ptr %20, i64 56
  %22 = load ptr, ptr %21, align 8
  %23 = getelementptr inbounds nuw i8, ptr %22, i64 115
  %24 = load i8, ptr %23, align 1
  %25 = icmp eq i8 %24, 112
  br i1 %25, label %heap_truncate_one_rel.exit, label %26

26:                                               ; preds = %.lr.ph46
  %27 = getelementptr inbounds nuw i8, ptr %20, i64 320
  %28 = load ptr, ptr %27, align 8
  %29 = getelementptr inbounds nuw i8, ptr %28, i64 232
  %30 = load ptr, ptr %29, align 8
  tail call void %30(ptr noundef nonnull %20) #11
  tail call fastcc void @RelationTruncateIndexes(ptr noundef nonnull %20)
  %31 = load ptr, ptr %21, align 8
  %32 = getelementptr inbounds nuw i8, ptr %31, i64 108
  %33 = load i32, ptr %32, align 4
  %.not.i = icmp eq i32 %33, 0
  br i1 %.not.i, label %heap_truncate_one_rel.exit, label %34

34:                                               ; preds = %26
  %35 = tail call ptr @table_open(i32 noundef %33, i32 noundef 8) #11
  %36 = getelementptr inbounds nuw i8, ptr %35, i64 320
  %37 = load ptr, ptr %36, align 8
  %38 = getelementptr inbounds nuw i8, ptr %37, i64 232
  %39 = load ptr, ptr %38, align 8
  tail call void %39(ptr noundef %35) #11
  tail call fastcc void @RelationTruncateIndexes(ptr noundef %35)
  tail call void @table_close(ptr noundef %35, i32 noundef 0) #11
  br label %heap_truncate_one_rel.exit

heap_truncate_one_rel.exit:                       ; preds = %.lr.ph46, %26, %34
  tail call void @table_close(ptr noundef nonnull %20, i32 noundef 0) #11
  %indvars.iv.next49 = add nuw nsw i64 %indvars.iv48, 1
  %40 = load i32, ptr %6, align 4
  %41 = sext i32 %40 to i64
  %42 = icmp slt i64 %indvars.iv.next49, %41
  br i1 %42, label %.lr.ph46, label %._crit_edge43
}